target datalayout = "e-m:e-p270:32:32-p271:32:32-p272:64:64-i64:64-i128:128-f80:128-n8:16:32:64-S128"
target triple = "x86_64-pc-linux-gnu"

%struct.AVPixFmtDescriptor = type { ptr, i8, i8, i8, i64, [4 x %struct.AVComponentDescriptor], ptr }
%struct.AVComponentDescriptor = type { i32, i32, i32, i32, i32 }

; Function Attrs: inlinehint nounwind uwtable
define internal i32 @image_get_linesize(i32 noundef %0, i32 noundef %1, i32 noundef %2, i32 noundef %3, ptr noundef %4) #4 {
  %6 = alloca i32, align 4
  %7 = alloca i32, align 4
  %8 = alloca i32, align 4
  %9 = alloca i32, align 4
  %10 = alloca i32, align 4
  %11 = alloca ptr, align 8
  %12 = alloca i32, align 4
  %13 = alloca i32, align 4
  %14 = alloca i32, align 4
  %15 = alloca i32, align 4
  store i32 %0, ptr %7, align 4, !tbaa !11
  store i32 %1, ptr %8, align 4, !tbaa !11
  store i32 %2, ptr %9, align 4, !tbaa !11
  store i32 %3, ptr %10, align 4, !tbaa !11
  store ptr %4, ptr %11, align 8, !tbaa !9
  call void @llvm.lifetime.start.p0(i64 4, ptr %12) #9
  call void @llvm.lifetime.start.p0(i64 4, ptr %13) #9
  call void @llvm.lifetime.start.p0(i64 4, ptr %14) #9
  %16 = load ptr, ptr %11, align 8, !tbaa !9
  %17 = icmp ne ptr %16, null
  br i1 %17, label %19, label %18

18:                                               ; preds = %5
  store i32 -22, ptr %6, align 4
  store i32 1, ptr %15, align 4
  br label %67

19:                                               ; preds = %5
  %20 = load i32, ptr %7, align 4, !tbaa !11
  %21 = icmp slt i32 %20, 0
  br i1 %21, label %22, label %23

22:                                               ; preds = %19
  store i32 -22, ptr %6, align 4
  store i32 1, ptr %15, align 4
  br label %67

23:                                               ; preds = %19
  %24 = load i32, ptr %10, align 4, !tbaa !11
  %25 = icmp eq i32 %24, 1
  br i1 %25, label %29, label %26

26:                                               ; preds = %23
  %27 = load i32, ptr %10, align 4, !tbaa !11
  %28 = icmp eq i32 %27, 2
  br i1 %28, label %29, label %34

29:                                               ; preds = %26, %23
  %30 = load ptr, ptr %11, align 8, !tbaa !9
  %31 = getelementptr inbounds nuw %struct.AVPixFmtDescriptor, ptr %30, i32 0, i32 2
  %32 = load i8, ptr %31, align 1, !tbaa !24
  %33 = zext i8 %32 to i32
  br label %35

34:                                               ; preds = %26
  br label %35

35:                                               ; preds = %34, %29
  %36 = phi i32 [ %33, %29 ], [ 0, %34 ]
  store i32 %36, ptr %12, align 4, !tbaa !11
  %37 = load i32, ptr %7, align 4, !tbaa !11
  %38 = load i32, ptr %12, align 4, !tbaa !11
  %39 = shl i32 1, %38
  %40 = add nsw i32 %37, %39
  %41 = sub nsw i32 %40, 1
  %42 = load i32, ptr %12, align 4, !tbaa !11
  %43 = ashr i32 %41, %42
  store i32 %43, ptr %13, align 4, !tbaa !11
  %44 = load i32, ptr %13, align 4, !tbaa !11
  %45 = icmp ne i32 %44, 0
  br i1 %45, label %46, label %52

46:                                               ; preds = %35
  %47 = load i32, ptr %9, align 4, !tbaa !11
  %48 = load i32, ptr %13, align 4, !tbaa !11
  %49 = sdiv i32 2147483647, %48
  %50 = icmp sgt i32 %47, %49
  br i1 %50, label %51, label %52

51:                                               ; preds = %46
  store i32 -22, ptr %6, align 4
  store i32 1, ptr %15, align 4
  br label %67

52:                                               ; preds = %46, %35
  %53 = load i32, ptr %9, align 4, !tbaa !11
  %54 = load i32, ptr %13, align 4, !tbaa !11
  %55 = mul nsw i32 %53, %54
  store i32 %55, ptr %14, align 4, !tbaa !11
  %56 = load ptr, ptr %11, align 8, !tbaa !9
  %57 = getelementptr inbounds nuw %struct.AVPixFmtDescriptor, ptr %56, i32 0, i32 4
  %58 = load i64, ptr %57, align 8, !tbaa !20
  %59 = and i64 %58, 4
  %60 = icmp ne i64 %59, 0
  br i1 %60, label %61, label %65

61:                                               ; preds = %52
  %62 = load i32, ptr %14, align 4, !tbaa !11
  %63 = add nsw i32 %62, 7
  %64 = ashr i32 %63, 3
  store i32 %64, ptr %14, align 4, !tbaa !11
  br label %65

65:                                               ; preds = %61, %52
  %66 = load i32, ptr %14, align 4, !tbaa !11
  store i32 %66, ptr %6, align 4
  store i32 1, ptr %15, align 4
  br label %67

67:                                               ; preds = %65, %51, %22, %18
  call void @llvm.lifetime.end.p0(i64 4, ptr %14) #9
  call void @llvm.lifetime.end.p0(i64 4, ptr %13) #9
  call void @llvm.lifetime.end.p0(i64 4, ptr %12) #9
  %68 = load i32, ptr %6, align 4
  ret i32 %68
}

; Function Attrs: nounwind uwtable
define void @av_image_fill_max_pixsteps(ptr noundef %0, ptr noundef %1, ptr noundef %2) #0 {
  %4 = alloca ptr, align 8
  %5 = alloca ptr, align 8
  %6 = alloca ptr, align 8
  %7 = alloca i32, align 4
  %8 = alloca ptr, align 8
  store ptr %0, ptr %4, align 8, !tbaa !4
  store ptr %1, ptr %5, align 8, !tbaa !4
  store ptr %2, ptr %6, align 8, !tbaa !9
  call void @llvm.lifetime.start.p0(i64 4, ptr %7) #9
  %9 = load ptr, ptr %4, align 8, !tbaa !4
  call void @llvm.memset.p0.i64(ptr align 4 %9, i8 0, i64 16, i1 false)
  %10 = load ptr, ptr %5, align 8, !tbaa !4
  %11 = icmp ne ptr %10, null
  br i1 %11, label %12, label %14

12:                                               ; preds = %3
  %13 = load ptr, ptr %5, align 8, !tbaa !4
  call void @llvm.memset.p0.i64(ptr align 4 %13, i8 0, i64 16, i1 false)
  br label %14

14:                                               ; preds = %12, %3
  store i32 0, ptr %7, align 4, !tbaa !11
  br label %15

15:                                               ; preds = %57, %14
  %16 = load i32, ptr %7, align 4, !tbaa !11
  %17 = icmp slt i32 %16, 4
  br i1 %17, label %18, label %60

18:                                               ; preds = %15
  call void @llvm.lifetime.start.p0(i64 8, ptr %8) #9
  %19 = load ptr, ptr %6, align 8, !tbaa !9
  %20 = getelementptr inbounds nuw %struct.AVPixFmtDescriptor, ptr %19, i32 0, i32 5
  %21 = load i32, ptr %7, align 4, !tbaa !11
  %22 = sext i32 %21 to i64
  %23 = getelementptr inbounds [4 x %struct.AVComponentDescriptor], ptr %20, i64 0, i64 %22
  store ptr %23, ptr %8, align 8, !tbaa !13
  %24 = load ptr, ptr %8, align 8, !tbaa !13
  %25 = getelementptr inbounds nuw %struct.AVComponentDescriptor, ptr %24, i32 0, i32 1
  %26 = load i32, ptr %25, align 4, !tbaa !15
  %27 = load ptr, ptr %4, align 8, !tbaa !4
  %28 = load ptr, ptr %8, align 8, !tbaa !13
  %29 = getelementptr inbounds nuw %struct.AVComponentDescriptor, ptr %28, i32 0, i32 0
  %30 = load i32, ptr %29, align 4, !tbaa !17
  %31 = sext i32 %30 to i64
  %32 = getelementptr inbounds i32, ptr %27, i64 %31
  %33 = load i32, ptr %32, align 4, !tbaa !11
  %34 = icmp sgt i32 %26, %33
  br i1 %34, label %35, label %56

35:                                               ; preds = %18
  %36 = load ptr, ptr %8, align 8, !tbaa !13
  %37 = getelementptr inbounds nuw %struct.AVComponentDescriptor, ptr %36, i32 0, i32 1
  %38 = load i32, ptr %37, align 4, !tbaa !15
  %39 = load ptr, ptr %4, align 8, !tbaa !4
  %40 = load ptr, ptr %8, align 8, !tbaa !13
  %41 = getelementptr inbounds nuw %struct.AVComponentDescriptor, ptr %40, i32 0, i32 0
  %42 = load i32, ptr %41, align 4, !tbaa !17
  %43 = sext i32 %42 to i64
  %44 = getelementptr inbounds i32, ptr %39, i64 %43
  store i32 %38, ptr %44, align 4, !tbaa !11
  %45 = load ptr, ptr %5, align 8, !tbaa !4
  %46 = icmp ne ptr %45, null
  br i1 %46, label %47, label %55

47:                                               ; preds = %35
  %48 = load i32, ptr %7, align 4, !tbaa !11
  %49 = load ptr, ptr %5, align 8, !tbaa !4
  %50 = load ptr, ptr %8, align 8, !tbaa !13
  %51 = getelementptr inbounds nuw %struct.AVComponentDescriptor, ptr %50, i32 0, i32 0
  %52 = load i32, ptr %51, align 4, !tbaa !17
  %53 = sext i32 %52 to i64
  %54 = getelementptr inbounds i32, ptr %49, i64 %53
  store i32 %48, ptr %54, align 4, !tbaa !11
  br label %55

55:                                               ; preds = %47, %35
  br label %56

56:                                               ; preds = %55, %18
  call void @llvm.lifetime.end.p0(i64 8, ptr %8) #9
  br label %57

57:                                               ; preds = %56
  %58 = load i32, ptr %7, align 4, !tbaa !11
  %59 = add nsw i32 %58, 1
  store i32 %59, ptr %7, align 4, !tbaa !11
  br label %15, !llvm.loop !18

60:                                               ; preds = %15
  call void @llvm.lifetime.end.p0(i64 4, ptr %7) #9
  ret void
}

; Function Attrs: nounwind uwtable
define i32 @av_image_get_linesize(i32 noundef %0, i32 noundef %1, i32 noundef %2) #0 {
  %4 = alloca i32, align 4
  %5 = alloca i32, align 4
  %6 = alloca i32, align 4
  %7 = alloca i32, align 4
  %8 = alloca ptr, align 8
  %9 = alloca [4 x i32], align 16
  %10 = alloca [4 x i32], align 16
  %11 = alloca i32, align 4
  store i32 %0, ptr %5, align 4, !tbaa !11
  store i32 %1, ptr %6, align 4, !tbaa !11
  store i32 %2, ptr %7, align 4, !tbaa !11
  call void @llvm.lifetime.start.p0(i64 8, ptr %8) #9
  %12 = load i32, ptr %5, align 4, !tbaa !11
  %13 = call ptr @av_pix_fmt_desc_get(i32 noundef %12)
  store ptr %13, ptr %8, align 8, !tbaa !9
  call void @llvm.lifetime.start.p0(i64 16, ptr %9) #9
  call void @llvm.lifetime.start.p0(i64 16, ptr %10) #9
  %14 = load ptr, ptr %8, align 8, !tbaa !9
  %15 = icmp ne ptr %14, null
  br i1 %15, label %16, label %22

16:                                               ; preds = %3
  %17 = load ptr, ptr %8, align 8, !tbaa !9
  %18 = getelementptr inbounds nuw %struct.AVPixFmtDescriptor, ptr %17, i32 0, i32 4
  %19 = load i64, ptr %18, align 8, !tbaa !20
  %20 = and i64 %19, 8
  %21 = icmp ne i64 %20, 0
  br i1 %21, label %22, label %23

22:                                               ; preds = %16, %3
  store i32 -22, ptr %4, align 4
  store i32 1, ptr %11, align 4
  br label %39

23:                                               ; preds = %16
  %24 = getelementptr inbounds [4 x i32], ptr %9, i64 0, i64 0
  %25 = getelementptr inbounds [4 x i32], ptr %10, i64 0, i64 0
  %26 = load ptr, ptr %8, align 8, !tbaa !9
  call void @av_image_fill_max_pixsteps(ptr noundef %24, ptr noundef %25, ptr noundef %26)
  %27 = load i32, ptr %6, align 4, !tbaa !11
  %28 = load i32, ptr %7, align 4, !tbaa !11
  %29 = load i32, ptr %7, align 4, !tbaa !11
  %30 = sext i32 %29 to i64
  %31 = getelementptr inbounds [4 x i32], ptr %9, i64 0, i64 %30
  %32 = load i32, ptr %31, align 4, !tbaa !11
  %33 = load i32, ptr %7, align 4, !tbaa !11
  %34 = sext i32 %33 to i64
  %35 = getelementptr inbounds [4 x i32], ptr %10, i64 0, i64 %34
  %36 = load i32, ptr %35, align 4, !tbaa !11
  %37 = load ptr, ptr %8, align 8, !tbaa !9
  %38 = call i32 @image_get_linesize(i32 noundef %27, i32 noundef %28, i32 noundef %32, i32 noundef %36, ptr noundef %37)
  store i32 %38, ptr %4, align 4
  store i32 1, ptr %11, align 4
  br label %39

39:                                               ; preds = %23, %22
  call void @llvm.lifetime.end.p0(i64 16, ptr %10) #9
  call void @llvm.lifetime.end.p0(i64 16, ptr %9) #9
  call void @llvm.lifetime.end.p0(i64 8, ptr %8) #9
  %40 = load i32, ptr %4, align 4
  ret i32 %40
}