; Function Attrs: nounwind uwtable
define i32 @av_image_get_linesize(i32 noundef %0, i32 noundef %1, i32 noundef %2) local_unnamed_addr #3 {
  %4 = alloca [4 x i32], align 16
  %5 = alloca [4 x i32], align 16
  %6 = tail call ptr @av_pix_fmt_desc_get(i32 noundef %0) #11
  call void @llvm.lifetime.start.p0(i64 16, ptr nonnull %4) #11
  call void @llvm.lifetime.start.p0(i64 16, ptr nonnull %5) #11
  %.not = icmp eq ptr %6, null
  br i1 %.not, label %image_get_linesize.exit, label %7

7:                                                ; preds = %3
  %8 = getelementptr inbounds nuw i8, ptr %6, i64 16
  %9 = load i64, ptr %8, align 8, !tbaa !13
  %10 = and i64 %9, 8
  %.not10 = icmp eq i64 %10, 0
  br i1 %.not10, label %11, label %image_get_linesize.exit

11:                                               ; preds = %7
  call void @llvm.memset.p0.i64(ptr noundef nonnull align 16 dereferenceable(16) %4, i8 0, i64 16, i1 false)
  call void @llvm.memset.p0.i64(ptr noundef nonnull align 16 dereferenceable(16) %5, i8 0, i64 16, i1 false)
  %12 = getelementptr inbounds nuw i8, ptr %6, i64 24
  br label %.split.i

.split.i:                                         ; preds = %24, %11
  %indvars.iv.i = phi i64 [ 0, %11 ], [ %indvars.iv.next.i, %24 ]
  %13 = getelementptr inbounds nuw [4 x %struct.AVComponentDescriptor], ptr %12, i64 0, i64 %indvars.iv.i
  %14 = getelementptr inbounds nuw i8, ptr %13, i64 4
  %15 = load i32, ptr %14, align 4, !tbaa !4
  %16 = load i32, ptr %13, align 4, !tbaa !9
  %17 = sext i32 %16 to i64
  %18 = getelementptr inbounds i32, ptr %4, i64 %17
  %19 = load i32, ptr %18, align 4, !tbaa !10
  %20 = icmp sgt i32 %15, %19
  br i1 %20, label %21, label %24

21:                                               ; preds = %.split.i
  store i32 %15, ptr %18, align 4, !tbaa !10
  %22 = getelementptr inbounds i32, ptr %5, i64 %17
  %23 = trunc nuw nsw i64 %indvars.iv.i to i32
  store i32 %23, ptr %22, align 4, !tbaa !10
  br label %24

24:                                               ; preds = %21, %.split.i
  %indvars.iv.next.i = add nuw nsw i64 %indvars.iv.i, 1
  %exitcond.not.i = icmp eq i64 %indvars.iv.next.i, 4
  br i1 %exitcond.not.i, label %av_image_fill_max_pixsteps.exit, label %.split.i, !llvm.loop !11

av_image_fill_max_pixsteps.exit:                  ; preds = %24
  %25 = sext i32 %2 to i64
  %26 = getelementptr inbounds [4 x i32], ptr %4, i64 0, i64 %25
  %27 = load i32, ptr %26, align 4, !tbaa !10
  %28 = icmp slt i32 %1, 0
  br i1 %28, label %image_get_linesize.exit, label %29

29:                                               ; preds = %av_image_fill_max_pixsteps.exit
  %30 = getelementptr inbounds [4 x i32], ptr %5, i64 0, i64 %25
  %31 = load i32, ptr %30, align 4, !tbaa !10
  %32 = add i32 %31, -1
  %or.cond.i = icmp ult i32 %32, 2
  br i1 %or.cond.i, label %33, label %37

33:                                               ; preds = %29
  %34 = getelementptr inbounds nuw i8, ptr %6, i64 9
  %35 = load i8, ptr %34, align 1, !tbaa !18
  %36 = zext i8 %35 to i32
  br label %37

37:                                               ; preds = %33, %29
  %38 = phi i32 [ %36, %33 ], [ 0, %29 ]
  %39 = shl nuw i32 1, %38
  %40 = add nsw i32 %1, -1
  %41 = add i32 %40, %39
  %42 = ashr i32 %41, %38
  %.not.i = icmp eq i32 %42, 0
  br i1 %.not.i, label %46, label %43

43:                                               ; preds = %37
  %44 = sdiv i32 2147483647, %42
  %45 = icmp sgt i32 %27, %44
  br i1 %45, label %image_get_linesize.exit, label %46

46:                                               ; preds = %43, %37
  %47 = mul nsw i32 %42, %27
  %48 = and i64 %9, 4
  %.not21.i = icmp eq i64 %48, 0
  %49 = add nsw i32 %47, 7
  %50 = ashr i32 %49, 3
  %.0.i = select i1 %.not21.i, i32 %47, i32 %50
  br label %image_get_linesize.exit

image_get_linesize.exit:                          ; preds = %46, %43, %av_image_fill_max_pixsteps.exit, %3, %7
  %.0 = phi i32 [ -22, %7 ], [ -22, %3 ], [ %.0.i, %46 ], [ -22, %av_image_fill_max_pixsteps.exit ], [ -22, %43 ]
  call void @llvm.lifetime.end.p0(i64 16, ptr nonnull %5) #11
  call void @llvm.lifetime.end.p0(i64 16, ptr nonnull %4) #11
  ret i32 %.0
}